; Function Attrs: mustprogress uwtable
define void @_ZN8QuantLib14VarianceOptionC2EN5boost10shared_ptrINS_6PayoffEEEdRKNS_4DateES7_(ptr noundef nonnull align 8 dereferenceable(144) %this, ptr noundef %vtt, ptr nocapture noundef %payoff, double noundef %notional, ptr nocapture noundef nonnull readonly align 8 dereferenceable(8) %startDate, ptr nocapture noundef nonnull readonly align 8 dereferenceable(8) %maturityDate) unnamed_addr #7 align 2 {
entry:
  %0 = getelementptr inbounds i8, ptr %vtt, i64 8
  tail call void @_ZN8QuantLib10InstrumentC2Ev(ptr noundef nonnull align 8 dereferenceable(104) %this, ptr noundef nonnull %0)
  %1 = load ptr, ptr %vtt, align 8
  store ptr %1, ptr %this, align 8, !tbaa !35
  %2 = getelementptr inbounds i8, ptr %vtt, i64 56
  %3 = load ptr, ptr %2, align 8
  %vbase.offset.ptr = getelementptr i8, ptr %1, i64 -24
  %vbase.offset = load i64, ptr %vbase.offset.ptr, align 8
  %add.ptr = getelementptr inbounds i8, ptr %this, i64 %vbase.offset
  store ptr %3, ptr %add.ptr, align 8, !tbaa !35
  %4 = getelementptr inbounds i8, ptr %vtt, i64 64
  %5 = load ptr, ptr %4, align 8
  %vtable3 = load ptr, ptr %this, align 8, !tbaa !35
  %vbase.offset.ptr4 = getelementptr i8, ptr %vtable3, i64 -32
  %vbase.offset5 = load i64, ptr %vbase.offset.ptr4, align 8
  %add.ptr6 = getelementptr inbounds i8, ptr %this, i64 %vbase.offset5
  store ptr %5, ptr %add.ptr6, align 8, !tbaa !35
  %payoff_ = getelementptr inbounds nuw i8, ptr %this, i64 104
  %6 = load ptr, ptr %payoff, align 8, !tbaa !44
  store ptr %6, ptr %payoff_, align 8, !tbaa !44
  %pn.i = getelementptr inbounds nuw i8, ptr %this, i64 112
  %pn3.i = getelementptr inbounds nuw i8, ptr %payoff, i64 8
  %7 = load ptr, ptr %pn3.i, align 8, !tbaa !37
  store ptr %7, ptr %pn.i, align 8, !tbaa !37
  tail call void @llvm.memset.p0.i64(ptr noundef nonnull align 8 dereferenceable(16) %payoff, i8 0, i64 16, i1 false)
  %notional_ = getelementptr inbounds nuw i8, ptr %this, i64 120
  store double %notional, ptr %notional_, align 8, !tbaa !46
  %startDate_ = getelementptr inbounds nuw i8, ptr %this, i64 128
  %8 = load i64, ptr %startDate, align 8, !tbaa !30
  store i64 %8, ptr %startDate_, align 8, !tbaa !30
  %maturityDate_ = getelementptr inbounds nuw i8, ptr %this, i64 136
  %9 = load i64, ptr %maturityDate, align 8, !tbaa !30
  store i64 %9, ptr %maturityDate_, align 8, !tbaa !30
  ret void
}